target datalayout = "e-m:e-p270:32:32-p271:32:32-p272:64:64-i64:64-i128:128-f80:128-n8:16:32:64-S128"
target triple = "x86_64-pc-linux-gnu"

%struct.AVFilterContext = type { ptr, ptr, ptr, ptr, ptr, i32, ptr, ptr, i32, ptr, ptr, i32, i32, ptr, ptr, ptr, ptr, i32, ptr, i32, i32 }
%struct.VAAPIVPPContext = type { ptr, ptr, ptr, i32, i32, i32, ptr, ptr, %struct._VARectangle, i32, i32, i32, [10 x i32], i32, i32, ptr, ptr }
%struct._VARectangle = type { i16, i16, i16, i16 }

; Function Attrs: nounwind uwtable
define void @ff_vaapi_vpp_ctx_init(ptr noundef %0) #0 {
  %2 = alloca ptr, align 8
  %3 = alloca i32, align 4
  %4 = alloca ptr, align 8
  store ptr %0, ptr %2, align 8, !tbaa !4
  call void @llvm.lifetime.start.p0(i64 4, ptr %3) #7
  call void @llvm.lifetime.start.p0(i64 8, ptr %4) #7
  %5 = load ptr, ptr %2, align 8, !tbaa !4
  %6 = getelementptr inbounds nuw %struct.AVFilterContext, ptr %5, i32 0, i32 9
  %7 = load ptr, ptr %6, align 8, !tbaa !14
  store ptr %7, ptr %4, align 8, !tbaa !25
  %8 = load ptr, ptr %4, align 8, !tbaa !25
  %9 = getelementptr inbounds nuw %struct.VAAPIVPPContext, ptr %8, i32 0, i32 4
  store i32 -1, ptr %9, align 4, !tbaa !39
  %10 = load ptr, ptr %4, align 8, !tbaa !25
  %11 = getelementptr inbounds nuw %struct.VAAPIVPPContext, ptr %10, i32 0, i32 5
  store i32 -1, ptr %11, align 8, !tbaa !38
  %12 = load ptr, ptr %4, align 8, !tbaa !25
  %13 = getelementptr inbounds nuw %struct.VAAPIVPPContext, ptr %12, i32 0, i32 3
  store i32 1, ptr %13, align 8, !tbaa !175
  store i32 0, ptr %3, align 4, !tbaa !12
  br label %14

14:                                               ; preds = %23, %1
  %15 = load i32, ptr %3, align 4, !tbaa !12
  %16 = icmp slt i32 %15, 10
  br i1 %16, label %17, label %26

17:                                               ; preds = %14
  %18 = load ptr, ptr %4, align 8, !tbaa !25
  %19 = getelementptr inbounds nuw %struct.VAAPIVPPContext, ptr %18, i32 0, i32 12
  %20 = load i32, ptr %3, align 4, !tbaa !12
  %21 = sext i32 %20 to i64
  %22 = getelementptr inbounds [10 x i32], ptr %19, i64 0, i64 %21
  store i32 -1, ptr %22, align 4, !tbaa !12
  br label %23

23:                                               ; preds = %17
  %24 = load i32, ptr %3, align 4, !tbaa !12
  %25 = add nsw i32 %24, 1
  store i32 %25, ptr %3, align 4, !tbaa !12
  br label %14, !llvm.loop !176

26:                                               ; preds = %14
  %27 = load ptr, ptr %4, align 8, !tbaa !25
  %28 = getelementptr inbounds nuw %struct.VAAPIVPPContext, ptr %27, i32 0, i32 13
  store i32 0, ptr %28, align 4, !tbaa !27
  call void @llvm.lifetime.end.p0(i64 8, ptr %4) #7
  call void @llvm.lifetime.end.p0(i64 4, ptr %3) #7
  ret void
}