; Function Attrs: mustprogress nofree norecurse nosync nounwind willreturn memory(write, argmem: readwrite, inaccessiblemem: none) uwtable
define void @ff_vaapi_vpp_ctx_init(ptr noundef readonly captures(none) %0) local_unnamed_addr #5 {
  %2 = getelementptr inbounds nuw i8, ptr %0, i64 72
  %3 = load ptr, ptr %2, align 8, !tbaa !4
  %4 = getelementptr inbounds nuw i8, ptr %3, i64 28
  store i32 -1, ptr %4, align 4, !tbaa !33
  %5 = getelementptr inbounds nuw i8, ptr %3, i64 32
  store i32 -1, ptr %5, align 8, !tbaa !32
  %6 = getelementptr inbounds nuw i8, ptr %3, i64 24
  store i32 1, ptr %6, align 8, !tbaa !140
  %7 = getelementptr inbounds nuw i8, ptr %3, i64 76
  tail call void @llvm.memset.p0.i64(ptr noundef nonnull align 4 dereferenceable(40) %7, i8 -1, i64 40, i1 false), !tbaa !26
  %8 = getelementptr inbounds nuw i8, ptr %3, i64 116
  store i32 0, ptr %8, align 4, !tbaa !20
  ret void
}